


ARM Macro Assembler    Page 1 


    1 00000000         ; generated by Component: ARM Compiler 5.06 update 6 (bu
                       ild 750) Tool: ArmCC [4d3637]
    2 00000000         ; commandline ArmCC [--c99 --split_sections --debug -c -
                       S -o.\objects\port.s --depend=.\objects\port.d --cpu=Cor
                       tex-M4 --apcs=interwork -O0 --diag_suppress=9931 -I.\Lib
                       rary\GD32F30x_standard_peripheral\Include -I.\Library\CM
                       SIS\GD\GD32F30x\Include -I.\Library\CMSIS -I.\INC -I.\De
                       vice -I.\FreeRTOS -I.\FreeRTOS\Source -I.\FreeRTOS\Sourc
                       e\CMSIS_RTOS -I.\FreeRTOS\Source\include -I.\FreeRTOS\So
                       urce\portable\RVDS\ARM_CM4F -I.\RTE\_880P_BL -ID:\MDK512
                       \ARM\PACK\GigaDevice\GD32F30x_DFP\1.0.0\Device\Include -
                       ID:\MDK512\ARM\CMSIS\Include -D__MICROLIB -D__UVISION_VE
                       RSION=526 -DGD32F30X_HD -DUSE_STDPERIPH_DRIVER -DUSE_STD
                       PERIPH_DRIVER -DGD32F30X_HD --omf_browse=.\objects\port.
                       crf FreeRTOS\Source\portable\RVDS\ARM_CM4F\port.c]
    3 00000000                 THUMB
    4 00000000                 REQUIRE8
    5 00000000                 PRESERVE8
    6 00000000         
    7 00000000                 AREA             ||i.prvTaskExitError||, CODE, R
EADONLY, ALIGN=2
    8 00000000         
    9 00000000         prvTaskExitError
                               PROC
   10 00000000 480E            LDR              r0,|L0.60|
   11 00000002 6800            LDR              r0,[r0,#0]  ; uxCriticalNesting
                                                            
   12 00000004 1C40            ADDS             r0,r0,#1
   13 00000006 B908            CBNZ             r0,|L0.12|
   14 00000008 2001            MOVS             r0,#1
   15 0000000A E000            B                |L0.14|
   16 0000000C         |L0.12|
   17 0000000C 2000            MOVS             r0,#0
   18 0000000E         |L0.14|
   19 0000000E B948            CBNZ             r0,|L0.36|
   20 00000010 BF00            NOP
   21 00000012 2060            MOVS             r0,#0x60
   22 00000014 F380 8811       MSR              BASEPRI,r0
   23 00000018 F3BF 8F4F       DSB
   24 0000001C F3BF 8F6F       ISB
   25 00000020 BF00            NOP
   26 00000022 BF00            NOP
   27 00000024         |L0.36|
   28 00000024 BF00            NOP
   29 00000026 2060            MOVS             r0,#0x60
   30 00000028 F380 8811       MSR              BASEPRI,r0
   31 0000002C F3BF 8F4F       DSB
   32 00000030 F3BF 8F6F       ISB
   33 00000034 BF00            NOP
   34 00000036 BF00            NOP
   35 00000038         |L0.56|
   36 00000038 E7FE            B                |L0.56|
   37 0000003A                 ENDP
   38 0000003A         
   39 0000003A 00 00           DCW              0x0000
   40 0000003C         |L0.60|
   41 0000003C 00000000        DCD              uxCriticalNesting
   42 00000040         
   43 00000040                 AREA             ||i.pxPortInitialiseStack||, CO



ARM Macro Assembler    Page 2 


DE, READONLY, ALIGN=2
   44 00000000         
   45 00000000         pxPortInitialiseStack
                               PROC
   46 00000000 1F00            SUBS             r0,r0,#4
   47 00000002 F04F 7380       MOV              r3,#0x1000000
   48 00000006 6003            STR              r3,[r0,#0]
   49 00000008 1F00            SUBS             r0,r0,#4
   50 0000000A F021 0301       BIC              r3,r1,#1
   51 0000000E 6003            STR              r3,[r0,#0]
   52 00000010 1F00            SUBS             r0,r0,#4
   53 00000012 4B05            LDR              r3,|L1.40|
   54 00000014 6003            STR              r3,[r0,#0]
   55 00000016 3814            SUBS             r0,r0,#0x14
   56 00000018 6002            STR              r2,[r0,#0]
   57 0000001A 1F00            SUBS             r0,r0,#4
   58 0000001C F06F 0302       MVN              r3,#2
   59 00000020 6003            STR              r3,[r0,#0]
   60 00000022 3820            SUBS             r0,r0,#0x20
   61 00000024 4770            BX               lr
   62 00000026                 ENDP
   63 00000026         
   64 00000026 00 00           DCW              0x0000
   65 00000028         |L1.40|
   66 00000028 00000000        DCD              prvTaskExitError
   67 0000002C         
   68 0000002C                 AREA             ||i.vPortEndScheduler||, CODE, 
READONLY, ALIGN=2
   69 00000000         
   70 00000000         vPortEndScheduler
                               PROC
   71 00000000 4809            LDR              r0,|L2.40|
   72 00000002 6800            LDR              r0,[r0,#0]  ; uxCriticalNesting
                                                            
   73 00000004 F5B0 7F7A       CMP              r0,#0x3e8
   74 00000008 D101            BNE              |L2.14|
   75 0000000A 2001            MOVS             r0,#1
   76 0000000C E000            B                |L2.16|
   77 0000000E         |L2.14|
   78 0000000E 2000            MOVS             r0,#0
   79 00000010         |L2.16|
   80 00000010 B948            CBNZ             r0,|L2.38|
   81 00000012 BF00            NOP
   82 00000014 2060            MOVS             r0,#0x60
   83 00000016 F380 8811       MSR              BASEPRI,r0
   84 0000001A F3BF 8F4F       DSB
   85 0000001E F3BF 8F6F       ISB
   86 00000022 BF00            NOP
   87 00000024 BF00            NOP
   88 00000026         |L2.38|
   89 00000026 4770            BX               lr
   90 00000028                 ENDP
   91 00000028         
   92 00000028         |L2.40|
   93 00000028 00000000        DCD              uxCriticalNesting
   94 0000002C         
   95 0000002C                 AREA             ||i.vPortEnterCritical||, CODE,
 READONLY, ALIGN=2
   96 00000000         



ARM Macro Assembler    Page 3 


   97 00000000         vPortEnterCritical
                               PROC
   98 00000000 BF00            NOP
   99 00000002 2060            MOVS             r0,#0x60
  100 00000004 F380 8811       MSR              BASEPRI,r0
  101 00000008 F3BF 8F4F       DSB
  102 0000000C F3BF 8F6F       ISB
  103 00000010 BF00            NOP
  104 00000012 480E            LDR              r0,|L3.76|
  105 00000014 6800            LDR              r0,[r0,#0]  ; uxCriticalNesting
                                                            
  106 00000016 1C40            ADDS             r0,r0,#1
  107 00000018 490C            LDR              r1,|L3.76|
  108 0000001A 6008            STR              r0,[r1,#0]  ; uxCriticalNesting
                                                            
  109 0000001C 4608            MOV              r0,r1
  110 0000001E 6800            LDR              r0,[r0,#0]  ; uxCriticalNesting
                                                            
  111 00000020 2801            CMP              r0,#1
  112 00000022 D111            BNE              |L3.72|
  113 00000024 480A            LDR              r0,|L3.80|
  114 00000026 6800            LDR              r0,[r0,#0]
  115 00000028 B2C0            UXTB             r0,r0
  116 0000002A B908            CBNZ             r0,|L3.48|
  117 0000002C 2001            MOVS             r0,#1
  118 0000002E E000            B                |L3.50|
  119 00000030         |L3.48|
  120 00000030 2000            MOVS             r0,#0
  121 00000032         |L3.50|
  122 00000032 B948            CBNZ             r0,|L3.72|
  123 00000034 BF00            NOP
  124 00000036 2060            MOVS             r0,#0x60
  125 00000038 F380 8811       MSR              BASEPRI,r0
  126 0000003C F3BF 8F4F       DSB
  127 00000040 F3BF 8F6F       ISB
  128 00000044 BF00            NOP
  129 00000046 BF00            NOP
  130 00000048         |L3.72|
  131 00000048 4770            BX               lr
  132 0000004A                 ENDP
  133 0000004A         
  134 0000004A 00 00           DCW              0x0000
  135 0000004C         |L3.76|
  136 0000004C 00000000        DCD              uxCriticalNesting
  137 00000050         |L3.80|
  138 00000050 E000ED04        DCD              0xe000ed04
  139 00000054         
  140 00000054                 AREA             ||i.vPortExitCritical||, CODE, 
READONLY, ALIGN=2
  141 00000000         
  142 00000000         vPortExitCritical
                               PROC
  143 00000000 480D            LDR              r0,|L4.56|
  144 00000002 6800            LDR              r0,[r0,#0]  ; uxCriticalNesting
                                                            
  145 00000004 B948            CBNZ             r0,|L4.26|
  146 00000006 BF00            NOP
  147 00000008 2060            MOVS             r0,#0x60
  148 0000000A F380 8811       MSR              BASEPRI,r0



ARM Macro Assembler    Page 4 


  149 0000000E F3BF 8F4F       DSB
  150 00000012 F3BF 8F6F       ISB
  151 00000016 BF00            NOP
  152 00000018 BF00            NOP
  153 0000001A         |L4.26|
  154 0000001A 4807            LDR              r0,|L4.56|
  155 0000001C 6800            LDR              r0,[r0,#0]  ; uxCriticalNesting
                                                            
  156 0000001E 1E40            SUBS             r0,r0,#1
  157 00000020 4905            LDR              r1,|L4.56|
  158 00000022 6008            STR              r0,[r1,#0]  ; uxCriticalNesting
                                                            
  159 00000024 4608            MOV              r0,r1
  160 00000026 6800            LDR              r0,[r0,#0]  ; uxCriticalNesting
                                                            
  161 00000028 B920            CBNZ             r0,|L4.52|
  162 0000002A 2000            MOVS             r0,#0
  163 0000002C F380 8811       MSR              BASEPRI,r0
  164 00000030 BF00            NOP
  165 00000032 BF00            NOP
  166 00000034         |L4.52|
  167 00000034 4770            BX               lr
  168 00000036                 ENDP
  169 00000036         
  170 00000036 00 00           DCW              0x0000
  171 00000038         |L4.56|
  172 00000038 00000000        DCD              uxCriticalNesting
  173 0000003C         
  174 0000003C                 AREA             ||i.vPortSetupTimerInterrupt||,
 CODE, READONLY, ALIGN=2
  175 00000000         
  176 00000000         vPortSetupTimerInterrupt
                               PROC
  177 00000000 4806            LDR              r0,|L5.28|
  178 00000002 6800            LDR              r0,[r0,#0]  ; SystemCoreClock
  179 00000004 F44F 717A       MOV              r1,#0x3e8
  180 00000008 FBB0 F0F1       UDIV             r0,r0,r1
  181 0000000C 1E40            SUBS             r0,r0,#1
  182 0000000E F04F 21E0       MOV              r1,#0xe000e000
  183 00000012 6148            STR              r0,[r1,#0x14]
  184 00000014 2007            MOVS             r0,#7
  185 00000016 6108            STR              r0,[r1,#0x10]
  186 00000018 4770            BX               lr
  187 0000001A                 ENDP
  188 0000001A         
  189 0000001A 00 00           DCW              0x0000
  190 0000001C         |L5.28|
  191 0000001C 00000000        DCD              SystemCoreClock
  192 00000020         
  193 00000020                 AREA             ||i.vPortValidateInterruptPrior
ity||, CODE, READONLY, ALIGN=2
  194 00000000         
  195 00000000         vPortValidateInterruptPriority
                               PROC
  196 00000000 B570            PUSH             {r4-r6,lr}
  197 00000002 F7FF FFFE       BL               vPortGetIPSR
  198 00000006 4604            MOV              r4,r0
  199 00000008 2C10            CMP              r4,#0x10
  200 0000000A D315            BCC              |L6.56|



ARM Macro Assembler    Page 5 


  201 0000000C F104 20E0       ADD              r0,r4,#0xe000e000
  202 00000010 F890 53F0       LDRB             r5,[r0,#0x3f0]
  203 00000014 4814            LDR              r0,|L6.104|
  204 00000016 7800            LDRB             r0,[r0,#0]  ; ucMaxSysCallPrior
                                                            ity
  205 00000018 4285            CMP              r5,r0
  206 0000001A DB01            BLT              |L6.32|
  207 0000001C 2001            MOVS             r0,#1
  208 0000001E E000            B                |L6.34|
  209 00000020         |L6.32|
  210 00000020 2000            MOVS             r0,#0
  211 00000022         |L6.34|
  212 00000022 B948            CBNZ             r0,|L6.56|
  213 00000024 BF00            NOP
  214 00000026 2060            MOVS             r0,#0x60
  215 00000028 F380 8811       MSR              BASEPRI,r0
  216 0000002C F3BF 8F4F       DSB
  217 00000030 F3BF 8F6F       ISB
  218 00000034 BF00            NOP
  219 00000036 BF00            NOP
  220 00000038         |L6.56|
  221 00000038 480C            LDR              r0,|L6.108|
  222 0000003A 6800            LDR              r0,[r0,#0]
  223 0000003C F400 60E0       AND              r0,r0,#0x700
  224 00000040 490B            LDR              r1,|L6.112|
  225 00000042 6809            LDR              r1,[r1,#0]  ; ulMaxPRIGROUPValu
                                                            e
  226 00000044 4288            CMP              r0,r1
  227 00000046 D801            BHI              |L6.76|
  228 00000048 2001            MOVS             r0,#1
  229 0000004A E000            B                |L6.78|
  230 0000004C         |L6.76|
  231 0000004C 2000            MOVS             r0,#0
  232 0000004E         |L6.78|
  233 0000004E B948            CBNZ             r0,|L6.100|
  234 00000050 BF00            NOP
  235 00000052 2060            MOVS             r0,#0x60
  236 00000054 F380 8811       MSR              BASEPRI,r0
  237 00000058 F3BF 8F4F       DSB
  238 0000005C F3BF 8F6F       ISB
  239 00000060 BF00            NOP
  240 00000062 BF00            NOP
  241 00000064         |L6.100|
  242 00000064 BD70            POP              {r4-r6,pc}
  243 00000066                 ENDP
  244 00000066         
  245 00000066 00 00           DCW              0x0000
  246 00000068         |L6.104|
  247 00000068 00000000        DCD              ucMaxSysCallPriority
  248 0000006C         |L6.108|
  249 0000006C E000ED0C        DCD              0xe000ed0c
  250 00000070         |L6.112|
  251 00000070 00000000        DCD              ulMaxPRIGROUPValue
  252 00000074         
  253 00000074                 AREA             ||i.xPortStartScheduler||, CODE
, READONLY, ALIGN=2
  254 00000000         
  255 00000000         xPortStartScheduler
                               PROC



ARM Macro Assembler    Page 6 


  256 00000000 B51C            PUSH             {r2-r4,lr}
  257 00000002 4846            LDR              r0,|L7.284|
  258 00000004 6800            LDR              r0,[r0,#0]
  259 00000006 4946            LDR              r1,|L7.288|
  260 00000008 4288            CMP              r0,r1
  261 0000000A D001            BEQ              |L7.16|
  262 0000000C 2001            MOVS             r0,#1
  263 0000000E E000            B                |L7.18|
  264 00000010         |L7.16|
  265 00000010 2000            MOVS             r0,#0
  266 00000012         |L7.18|
  267 00000012 B948            CBNZ             r0,|L7.40|
  268 00000014 BF00            NOP
  269 00000016 2060            MOVS             r0,#0x60
  270 00000018 F380 8811       MSR              BASEPRI,r0
  271 0000001C F3BF 8F4F       DSB
  272 00000020 F3BF 8F6F       ISB
  273 00000024 BF00            NOP
  274 00000026 BF00            NOP
  275 00000028         |L7.40|
  276 00000028 483C            LDR              r0,|L7.284|
  277 0000002A 6800            LDR              r0,[r0,#0]
  278 0000002C 493C            LDR              r1,|L7.288|
  279 0000002E 1E49            SUBS             r1,r1,#1
  280 00000030 4288            CMP              r0,r1
  281 00000032 D001            BEQ              |L7.56|
  282 00000034 2001            MOVS             r0,#1
  283 00000036 E000            B                |L7.58|
  284 00000038         |L7.56|
  285 00000038 2000            MOVS             r0,#0
  286 0000003A         |L7.58|
  287 0000003A B948            CBNZ             r0,|L7.80|
  288 0000003C BF00            NOP
  289 0000003E 2060            MOVS             r0,#0x60
  290 00000040 F380 8811       MSR              BASEPRI,r0
  291 00000044 F3BF 8F4F       DSB
  292 00000048 F3BF 8F6F       ISB
  293 0000004C BF00            NOP
  294 0000004E BF00            NOP
  295 00000050         |L7.80|
  296 00000050 4934            LDR              r1,|L7.292|
  297 00000052 4608            MOV              r0,r1
  298 00000054 7800            LDRB             r0,[r0,#0]
  299 00000056 9001            STR              r0,[sp,#4]
  300 00000058 20FF            MOVS             r0,#0xff
  301 0000005A 460A            MOV              r2,r1
  302 0000005C 7010            STRB             r0,[r2,#0]
  303 0000005E 4608            MOV              r0,r1
  304 00000060 7800            LDRB             r0,[r0,#0]
  305 00000062 9000            STR              r0,[sp,#0]
  306 00000064 F89D 0000       LDRB             r0,[sp,#0]
  307 00000068 F000 00F0       AND              r0,r0,#0xf0
  308 0000006C F89D 2000       LDRB             r2,[sp,#0]
  309 00000070 4290            CMP              r0,r2
  310 00000072 D101            BNE              |L7.120|
  311 00000074 2001            MOVS             r0,#1
  312 00000076 E000            B                |L7.122|
  313 00000078         |L7.120|
  314 00000078 2000            MOVS             r0,#0



ARM Macro Assembler    Page 7 


  315 0000007A         |L7.122|
  316 0000007A B948            CBNZ             r0,|L7.144|
  317 0000007C BF00            NOP
  318 0000007E 2060            MOVS             r0,#0x60
  319 00000080 F380 8811       MSR              BASEPRI,r0
  320 00000084 F3BF 8F4F       DSB
  321 00000088 F3BF 8F6F       ISB
  322 0000008C BF00            NOP
  323 0000008E BF00            NOP
  324 00000090         |L7.144|
  325 00000090 F89D 0000       LDRB             r0,[sp,#0]
  326 00000094 F000 0060       AND              r0,r0,#0x60
  327 00000098 4A23            LDR              r2,|L7.296|
  328 0000009A 7010            STRB             r0,[r2,#0]
  329 0000009C 2007            MOVS             r0,#7
  330 0000009E 4A23            LDR              r2,|L7.300|
  331 000000A0 6010            STR              r0,[r2,#0]  ; ulMaxPRIGROUPValu
                                                            e
  332 000000A2 E009            B                |L7.184|
  333 000000A4         |L7.164|
  334 000000A4 4821            LDR              r0,|L7.300|
  335 000000A6 6800            LDR              r0,[r0,#0]  ; ulMaxPRIGROUPValu
                                                            e
  336 000000A8 1E40            SUBS             r0,r0,#1
  337 000000AA 4A20            LDR              r2,|L7.300|
  338 000000AC 6010            STR              r0,[r2,#0]  ; ulMaxPRIGROUPValu
                                                            e
  339 000000AE F89D 0000       LDRB             r0,[sp,#0]
  340 000000B2 0640            LSLS             r0,r0,#25
  341 000000B4 0E00            LSRS             r0,r0,#24
  342 000000B6 9000            STR              r0,[sp,#0]
  343 000000B8         |L7.184|
  344 000000B8 F89D 0000       LDRB             r0,[sp,#0]
  345 000000BC F000 0080       AND              r0,r0,#0x80
  346 000000C0 2880            CMP              r0,#0x80
  347 000000C2 D0EF            BEQ              |L7.164|
  348 000000C4 4819            LDR              r0,|L7.300|
  349 000000C6 6800            LDR              r0,[r0,#0]  ; ulMaxPRIGROUPValu
                                                            e
  350 000000C8 0200            LSLS             r0,r0,#8
  351 000000CA 4A18            LDR              r2,|L7.300|
  352 000000CC 6010            STR              r0,[r2,#0]  ; ulMaxPRIGROUPValu
                                                            e
  353 000000CE 4610            MOV              r0,r2
  354 000000D0 8800            LDRH             r0,[r0,#0]  ; ulMaxPRIGROUPValu
                                                            e
  355 000000D2 F400 60E0       AND              r0,r0,#0x700
  356 000000D6 6010            STR              r0,[r2,#0]  ; ulMaxPRIGROUPValu
                                                            e
  357 000000D8 4A12            LDR              r2,|L7.292|
  358 000000DA 9801            LDR              r0,[sp,#4]
  359 000000DC 7010            STRB             r0,[r2,#0]
  360 000000DE 480F            LDR              r0,|L7.284|
  361 000000E0 3020            ADDS             r0,r0,#0x20
  362 000000E2 6800            LDR              r0,[r0,#0]
  363 000000E4 F440 0070       ORR              r0,r0,#0xf00000
  364 000000E8 490C            LDR              r1,|L7.284|
  365 000000EA 3120            ADDS             r1,r1,#0x20
  366 000000EC 6008            STR              r0,[r1,#0]



ARM Macro Assembler    Page 8 


  367 000000EE 4608            MOV              r0,r1
  368 000000F0 6800            LDR              r0,[r0,#0]
  369 000000F2 F040 4070       ORR              r0,r0,#0xf0000000
  370 000000F6 6008            STR              r0,[r1,#0]
  371 000000F8 F7FF FFFE       BL               vPortSetupTimerInterrupt
  372 000000FC 2000            MOVS             r0,#0
  373 000000FE 490C            LDR              r1,|L7.304|
  374 00000100 6008            STR              r0,[r1,#0]  ; uxCriticalNesting
                                                            
  375 00000102 F7FF FFFE       BL               __asm___6_port_c_39a90d8d__prvE
nableVFP
  376 00000106 480B            LDR              r0,|L7.308|
  377 00000108 6800            LDR              r0,[r0,#0]
  378 0000010A F040 4040       ORR              r0,r0,#0xc0000000
  379 0000010E 4909            LDR              r1,|L7.308|
  380 00000110 6008            STR              r0,[r1,#0]
  381 00000112 F7FF FFFE       BL               __asm___6_port_c_39a90d8d__prvS
tartFirstTask
  382 00000116 2000            MOVS             r0,#0
  383 00000118 BD1C            POP              {r2-r4,pc}
  384 0000011A                 ENDP
  385 0000011A         
  386 0000011A 00 00           DCW              0x0000
  387 0000011C         |L7.284|
  388 0000011C E000ED00        DCD              0xe000ed00
  389 00000120         |L7.288|
  390 00000120 410FC271        DCD              0x410fc271
  391 00000124         |L7.292|
  392 00000124 E000E400        DCD              0xe000e400
  393 00000128         |L7.296|
  394 00000128 00000000        DCD              ucMaxSysCallPriority
  395 0000012C         |L7.300|
  396 0000012C 00000000        DCD              ulMaxPRIGROUPValue
  397 00000130         |L7.304|
  398 00000130 00000000        DCD              uxCriticalNesting
  399 00000134         |L7.308|
  400 00000134 E000EF34        DCD              0xe000ef34
  401 00000138         
  402 00000138                 AREA             ||i.xPortSysTickHandler||, CODE
, READONLY, ALIGN=2
  403 00000000         
  404 00000000         xPortSysTickHandler
                               PROC
  405 00000000 B510            PUSH             {r4,lr}
  406 00000002 BF00            NOP
  407 00000004 2060            MOVS             r0,#0x60
  408 00000006 F380 8811       MSR              BASEPRI,r0
  409 0000000A F3BF 8F4F       DSB
  410 0000000E F3BF 8F6F       ISB
  411 00000012 BF00            NOP
  412 00000014 F7FF FFFE       BL               xTaskIncrementTick
  413 00000018 B118            CBZ              r0,|L8.34|
  414 0000001A F04F 5080       MOV              r0,#0x10000000
  415 0000001E 4904            LDR              r1,|L8.48|
  416 00000020 6008            STR              r0,[r1,#0]
  417 00000022         |L8.34|
  418 00000022 BF00            NOP
  419 00000024 2000            MOVS             r0,#0
  420 00000026 F380 8811       MSR              BASEPRI,r0



ARM Macro Assembler    Page 9 


  421 0000002A BF00            NOP
  422 0000002C BD10            POP              {r4,pc}
  423 0000002E                 ENDP
  424 0000002E         
  425 0000002E 00 00           DCW              0x0000
  426 00000030         |L8.48|
  427 00000030 E000ED04        DCD              0xe000ed04
  428 00000034         
  429 00000034                 AREA             ||.arm_vfe_header||, DATA, READ
ONLY, NOALLOC, ALIGN=2
  430 00000000         
  431 00000000 00000000        DCD              0x00000000
  432 00000004         
  433 00000004                 AREA             ||.data||, DATA, ALIGN=2
  434 00000000         
  435 00000000         uxCriticalNesting
  436 00000000 AAAAAAAA        DCD              0xaaaaaaaa
  437 00000004         ucMaxSysCallPriority
  438 00000004 00 00 00 
              00               DCB              0x00,0x00,0x00,0x00
  439 00000008         ulMaxPRIGROUPValue
  440 00000008 00000000        DCD              0x00000000
  441 0000000C         
  442 0000000C         ;*** Start embedded assembler ***
  443 0000000C         
  444 0000000C         #line   1                "FreeRTOS\\Source\\portable\\RV
DS\\ARM_CM4F\\port.c"
    1 0000000C                 AREA             ||.rev16_text||, CODE
    2 00000000                 THUMB
    3 00000000                 EXPORT           |__asm___6_port_c_39a90d8d____R
EV16|
    4 00000000         #line   114              ".\\Library\\CMSIS\\core_cmInst
r.h"
  114 00000000         |__asm___6_port_c_39a90d8d____REV16|
                               PROC
  115 00000000         #line   115
  115 00000000         
  116 00000000 BA40            rev16            r0, r0
  117 00000002 4770            bx               lr
  118 00000004                 ENDP
  119 00000004                 AREA             ||.revsh_text||, CODE
  120 00000000                 THUMB
  121 00000000                 EXPORT           |__asm___6_port_c_39a90d8d____R
EVSH|
  122 00000000         #line   128
  128 00000000         |__asm___6_port_c_39a90d8d____REVSH|
                               PROC
  129 00000000         #line   129
  129 00000000         
  130 00000000 BAC0            revsh            r0, r0
  131 00000002 4770            bx               lr
  132 00000004                 ENDP
  133 00000004                 AREA             ||.emb_text||, CODE
  134 00000000                 THUMB
  135 00000000                 EXPORT           |SVC_Handler|
  136 00000000         #line   278              "FreeRTOS\\Source\\portable\\RV
DS\\ARM_CM4F\\port.c"
  278 00000000         |SVC_Handler|
                               PROC



ARM Macro Assembler    Page 10 


  279 00000000         #line   279
  279 00000000         
  280 00000000                 PRESERVE8
  281 00000000         
  282 00000000         
  283 00000000         
  284 00000000 6819            ldr              r1, [r3]
  285 00000002 6808            ldr              r0, [r1]
  286 00000004         
  287 00000004 E8B0 4FF0       ldmia            r0!, {r4-r11, r14}
  288 00000008 F380 8809       msr              psp, r0
  289 0000000C F3BF 8F6F       isb
  290 00000010 F04F 0000       mov              r0, #0
  291 00000014 F380 8811       msr              basepri, r0
  292 00000018 4770            bx               r14
  293 0000001A                 ENDP
  294 0000001A                 AREA             ||.emb_text||, CODE
  295 0000001A                 THUMB
  296 0000001A                 EXPORT           |__asm___6_port_c_39a90d8d__prv
StartFirstTask|
  297 0000001A         #line   296
  296 0000001A         |__asm___6_port_c_39a90d8d__prvStartFirstTask|
                               PROC
  297 0000001A         #line   297
  297 0000001A         
  298 0000001A                 PRESERVE8
  299 0000001A         
  300 0000001A         
  301 0000001A 4807            ldr              r0, =0xE000ED08
  302 0000001C 6800            ldr              r0, [r0]
  303 0000001E 6800            ldr              r0, [r0]
  304 00000020         
  305 00000020 F380 8808       msr              msp, r0
  306 00000024         
  307 00000024 B662            cpsie            i
  308 00000026 B661            cpsie            f
  309 00000028 F3BF 8F4F       dsb
  310 0000002C F3BF 8F6F       isb
  311 00000030         
  312 00000030 DF00            svc              0
  313 00000032 BF00            nop
  314 00000034 BF00            nop
  315 00000036                 ENDP
  316 00000036 00 00 E000ED08  AREA             ||.emb_text||, CODE
  317 0000003C                 THUMB
  318 0000003C                 EXPORT           |__asm___6_port_c_39a90d8d__prv
EnableVFP|
  319 0000003C         #line   318
  318 0000003C         |__asm___6_port_c_39a90d8d__prvEnableVFP|
                               PROC
  319 0000003C         #line   319
  319 0000003C         
  320 0000003C                 PRESERVE8
  321 0000003C         
  322 0000003C         
  323 0000003C F8DF 000C       ldr.w            r0, =0xE000ED88
  324 00000040 6801            ldr              r1, [r0]
  325 00000042         
  326 00000042         



ARM Macro Assembler    Page 11 


  327 00000042 F441 0170       orr              r1, r1, #( 0xf << 20 )
  328 00000046 6001            str              r1, [r0]
  329 00000048 4770            bx               r14
  330 0000004A BF00            nop
  331 0000004C                 ENDP
  332 0000004C E000ED88        AREA             ||.emb_text||, CODE
  333 00000050                 THUMB
  334 00000050                 EXPORT           |vPortGetIPSR|
  335 00000050         #line   721
  721 00000050         |vPortGetIPSR|
                               PROC
  722 00000050         #line   722
  722 00000050         
  723 00000050                 PRESERVE8
  724 00000050         
  725 00000050 F3EF 8005       mrs              r0, ipsr
  726 00000054 4770            bx               r14
  727 00000056                 ENDP
  728 00000056         
  729 00000056         ;*** End   embedded assembler ***
  730 00000056         
  731 00000056                 EXPORT           pxPortInitialiseStack [CODE]
  732 00000056                 EXPORT           vPortEndScheduler [CODE]
  733 00000056                 EXPORT           vPortEnterCritical [CODE]
  734 00000056                 EXPORT           vPortExitCritical [CODE]
  735 00000056                 EXPORT           vPortSetupTimerInterrupt [CODE]
  736 00000056                 EXPORT           vPortValidateInterruptPriority 
[CODE]
  737 00000056                 EXPORT           xPortStartScheduler [CODE]
  738 00000056                 EXPORT           xPortSysTickHandler [CODE]
  739 00000056         
  740 00000056                 IMPORT           ||Lib$$Request$$armlib|| [CODE,
WEAK]
  741 00000056                 IMPORT           SystemCoreClock [DATA]
  742 00000056                 IMPORT           xTaskIncrementTick [CODE]
  743 00000056         
  744 00000056                 KEEP             prvTaskExitError
  745 00000056                 KEEP             uxCriticalNesting
  746 00000056                 KEEP             ucMaxSysCallPriority
  747 00000056                 KEEP             ulMaxPRIGROUPValue
  748 00000056         
  749 00000056                 ATTR             FILESCOPE
  750 00000056                 ATTR             SETVALUE Tag_ABI_PCS_wchar_t,2
  751 00000056                 ATTR             SETVALUE Tag_ABI_enum_size,1
  752 00000056                 ATTR             SETVALUE Tag_ABI_optimization_g
oals,6
  753 00000056                 ATTR             SETSTRING Tag_conformance,"2.09
"
  754 00000056                 ATTR             SETVALUE AV,18,1
  755 00000056         
  756 00000056                 ASSERT           {ENDIAN} = "little"
  757 00000056                 ASSERT           {INTER} = {TRUE}
  758 00000056                 ASSERT           {ROPI} = {FALSE}
  759 00000056                 ASSERT           {RWPI} = {FALSE}
  760 00000056                 ASSERT           {IEEE_FULL} = {FALSE}
  761 00000056                 ASSERT           {IEEE_PART} = {FALSE}
  762 00000056                 ASSERT           {IEEE_JAVA} = {FALSE}
  763 00000056                 END
Command Line: --debug --xref --diag_suppress=9931 --cpu=Cortex-M4 --apcs=interw



ARM Macro Assembler    Page 12 


ork -o.\objects\port.o -I.\RTE\_880P_BL -ID:\MDK512\ARM\PACK\GigaDevice\GD32F30
x_DFP\1.0.0\Device\Include -ID:\MDK512\ARM\CMSIS\Include --predefine="__MICROLI
B SETA 1" --predefine="__UVISION_VERSION SETA 526" --predefine="GD32F30X_HD SET
A 1" --predefine="USE_STDPERIPH_DRIVER SETA 1" --list=.\listings\port.lst .\obj
ects\port.s



ARM Macro Assembler    Page 1 Alphabetic symbol ordering
Relocatable symbols

L0.12 0000000C

Symbol: L0.12
   Definitions
      At line 16 in file .\objects\port.s
   Uses
      At line 13 in file .\objects\port.s
Comment: L0.12 used once
L0.14 0000000E

Symbol: L0.14
   Definitions
      At line 18 in file .\objects\port.s
   Uses
      At line 15 in file .\objects\port.s
Comment: L0.14 used once
L0.36 00000024

Symbol: L0.36
   Definitions
      At line 27 in file .\objects\port.s
   Uses
      At line 19 in file .\objects\port.s
Comment: L0.36 used once
L0.56 00000038

Symbol: L0.56
   Definitions
      At line 35 in file .\objects\port.s
   Uses
      At line 36 in file .\objects\port.s
Comment: L0.56 used once
L0.60 0000003C

Symbol: L0.60
   Definitions
      At line 40 in file .\objects\port.s
   Uses
      At line 10 in file .\objects\port.s
Comment: L0.60 used once
prvTaskExitError 00000000

Symbol: prvTaskExitError
   Definitions
      At line 9 in file .\objects\port.s
   Uses
      At line 66 in file .\objects\port.s
      At line 744 in file FreeRTOS\\Source\\portable\\RVDS\\ARM_CM4F\\port.c

|i.prvTaskExitError| 00000000

Symbol: |i.prvTaskExitError|
   Definitions
      At line 7 in file .\objects\port.s
   Uses
      None
Comment: |i.prvTaskExitError| unused
7 symbols



ARM Macro Assembler    Page 1 Alphabetic symbol ordering
Relocatable symbols

L1.40 00000028

Symbol: L1.40
   Definitions
      At line 65 in file .\objects\port.s
   Uses
      At line 53 in file .\objects\port.s
Comment: L1.40 used once
pxPortInitialiseStack 00000000

Symbol: pxPortInitialiseStack
   Definitions
      At line 45 in file .\objects\port.s
   Uses
      At line 731 in file FreeRTOS\\Source\\portable\\RVDS\\ARM_CM4F\\port.c
Comment: pxPortInitialiseStack used once
|i.pxPortInitialiseStack| 00000000

Symbol: |i.pxPortInitialiseStack|
   Definitions
      At line 43 in file .\objects\port.s
   Uses
      None
Comment: |i.pxPortInitialiseStack| unused
3 symbols



ARM Macro Assembler    Page 1 Alphabetic symbol ordering
Relocatable symbols

L2.14 0000000E

Symbol: L2.14
   Definitions
      At line 77 in file .\objects\port.s
   Uses
      At line 74 in file .\objects\port.s
Comment: L2.14 used once
L2.16 00000010

Symbol: L2.16
   Definitions
      At line 79 in file .\objects\port.s
   Uses
      At line 76 in file .\objects\port.s
Comment: L2.16 used once
L2.38 00000026

Symbol: L2.38
   Definitions
      At line 88 in file .\objects\port.s
   Uses
      At line 80 in file .\objects\port.s
Comment: L2.38 used once
L2.40 00000028

Symbol: L2.40
   Definitions
      At line 92 in file .\objects\port.s
   Uses
      At line 71 in file .\objects\port.s
Comment: L2.40 used once
vPortEndScheduler 00000000

Symbol: vPortEndScheduler
   Definitions
      At line 70 in file .\objects\port.s
   Uses
      At line 732 in file FreeRTOS\\Source\\portable\\RVDS\\ARM_CM4F\\port.c
Comment: vPortEndScheduler used once
|i.vPortEndScheduler| 00000000

Symbol: |i.vPortEndScheduler|
   Definitions
      At line 68 in file .\objects\port.s
   Uses
      None
Comment: |i.vPortEndScheduler| unused
6 symbols



ARM Macro Assembler    Page 1 Alphabetic symbol ordering
Relocatable symbols

L3.48 00000030

Symbol: L3.48
   Definitions
      At line 119 in file .\objects\port.s
   Uses
      At line 116 in file .\objects\port.s
Comment: L3.48 used once
L3.50 00000032

Symbol: L3.50
   Definitions
      At line 121 in file .\objects\port.s
   Uses
      At line 118 in file .\objects\port.s
Comment: L3.50 used once
L3.72 00000048

Symbol: L3.72
   Definitions
      At line 130 in file .\objects\port.s
   Uses
      At line 112 in file .\objects\port.s
      At line 122 in file .\objects\port.s

L3.76 0000004C

Symbol: L3.76
   Definitions
      At line 135 in file .\objects\port.s
   Uses
      At line 104 in file .\objects\port.s
      At line 107 in file .\objects\port.s

L3.80 00000050

Symbol: L3.80
   Definitions
      At line 137 in file .\objects\port.s
   Uses
      At line 113 in file .\objects\port.s
Comment: L3.80 used once
vPortEnterCritical 00000000

Symbol: vPortEnterCritical
   Definitions
      At line 97 in file .\objects\port.s
   Uses
      At line 733 in file FreeRTOS\\Source\\portable\\RVDS\\ARM_CM4F\\port.c
Comment: vPortEnterCritical used once
|i.vPortEnterCritical| 00000000

Symbol: |i.vPortEnterCritical|
   Definitions
      At line 95 in file .\objects\port.s
   Uses
      None
Comment: |i.vPortEnterCritical| unused
7 symbols



ARM Macro Assembler    Page 1 Alphabetic symbol ordering
Relocatable symbols

L4.26 0000001A

Symbol: L4.26
   Definitions
      At line 153 in file .\objects\port.s
   Uses
      At line 145 in file .\objects\port.s
Comment: L4.26 used once
L4.52 00000034

Symbol: L4.52
   Definitions
      At line 166 in file .\objects\port.s
   Uses
      At line 161 in file .\objects\port.s
Comment: L4.52 used once
L4.56 00000038

Symbol: L4.56
   Definitions
      At line 171 in file .\objects\port.s
   Uses
      At line 143 in file .\objects\port.s
      At line 154 in file .\objects\port.s
      At line 157 in file .\objects\port.s

vPortExitCritical 00000000

Symbol: vPortExitCritical
   Definitions
      At line 142 in file .\objects\port.s
   Uses
      At line 734 in file FreeRTOS\\Source\\portable\\RVDS\\ARM_CM4F\\port.c
Comment: vPortExitCritical used once
|i.vPortExitCritical| 00000000

Symbol: |i.vPortExitCritical|
   Definitions
      At line 140 in file .\objects\port.s
   Uses
      None
Comment: |i.vPortExitCritical| unused
5 symbols



ARM Macro Assembler    Page 1 Alphabetic symbol ordering
Relocatable symbols

L5.28 0000001C

Symbol: L5.28
   Definitions
      At line 190 in file .\objects\port.s
   Uses
      At line 177 in file .\objects\port.s
Comment: L5.28 used once
vPortSetupTimerInterrupt 00000000

Symbol: vPortSetupTimerInterrupt
   Definitions
      At line 176 in file .\objects\port.s
   Uses
      At line 371 in file .\objects\port.s
      At line 735 in file FreeRTOS\\Source\\portable\\RVDS\\ARM_CM4F\\port.c

|i.vPortSetupTimerInterrupt| 00000000

Symbol: |i.vPortSetupTimerInterrupt|
   Definitions
      At line 174 in file .\objects\port.s
   Uses
      None
Comment: |i.vPortSetupTimerInterrupt| unused
3 symbols



ARM Macro Assembler    Page 1 Alphabetic symbol ordering
Relocatable symbols

L6.100 00000064

Symbol: L6.100
   Definitions
      At line 241 in file .\objects\port.s
   Uses
      At line 233 in file .\objects\port.s
Comment: L6.100 used once
L6.104 00000068

Symbol: L6.104
   Definitions
      At line 246 in file .\objects\port.s
   Uses
      At line 203 in file .\objects\port.s
Comment: L6.104 used once
L6.108 0000006C

Symbol: L6.108
   Definitions
      At line 248 in file .\objects\port.s
   Uses
      At line 221 in file .\objects\port.s
Comment: L6.108 used once
L6.112 00000070

Symbol: L6.112
   Definitions
      At line 250 in file .\objects\port.s
   Uses
      At line 224 in file .\objects\port.s
Comment: L6.112 used once
L6.32 00000020

Symbol: L6.32
   Definitions
      At line 209 in file .\objects\port.s
   Uses
      At line 206 in file .\objects\port.s
Comment: L6.32 used once
L6.34 00000022

Symbol: L6.34
   Definitions
      At line 211 in file .\objects\port.s
   Uses
      At line 208 in file .\objects\port.s
Comment: L6.34 used once
L6.56 00000038

Symbol: L6.56
   Definitions
      At line 220 in file .\objects\port.s
   Uses
      At line 200 in file .\objects\port.s
      At line 212 in file .\objects\port.s

L6.76 0000004C




ARM Macro Assembler    Page 2 Alphabetic symbol ordering
Relocatable symbols

Symbol: L6.76
   Definitions
      At line 230 in file .\objects\port.s
   Uses
      At line 227 in file .\objects\port.s
Comment: L6.76 used once
L6.78 0000004E

Symbol: L6.78
   Definitions
      At line 232 in file .\objects\port.s
   Uses
      At line 229 in file .\objects\port.s
Comment: L6.78 used once
vPortValidateInterruptPriority 00000000

Symbol: vPortValidateInterruptPriority
   Definitions
      At line 195 in file .\objects\port.s
   Uses
      At line 736 in file FreeRTOS\\Source\\portable\\RVDS\\ARM_CM4F\\port.c
Comment: vPortValidateInterruptPriority used once
|i.vPortValidateInterruptPriority| 00000000

Symbol: |i.vPortValidateInterruptPriority|
   Definitions
      At line 193 in file .\objects\port.s
   Uses
      None
Comment: |i.vPortValidateInterruptPriority| unused
11 symbols



ARM Macro Assembler    Page 1 Alphabetic symbol ordering
Relocatable symbols

L7.120 00000078

Symbol: L7.120
   Definitions
      At line 313 in file .\objects\port.s
   Uses
      At line 310 in file .\objects\port.s
Comment: L7.120 used once
L7.122 0000007A

Symbol: L7.122
   Definitions
      At line 315 in file .\objects\port.s
   Uses
      At line 312 in file .\objects\port.s
Comment: L7.122 used once
L7.144 00000090

Symbol: L7.144
   Definitions
      At line 324 in file .\objects\port.s
   Uses
      At line 316 in file .\objects\port.s
Comment: L7.144 used once
L7.16 00000010

Symbol: L7.16
   Definitions
      At line 264 in file .\objects\port.s
   Uses
      At line 261 in file .\objects\port.s
Comment: L7.16 used once
L7.164 000000A4

Symbol: L7.164
   Definitions
      At line 333 in file .\objects\port.s
   Uses
      At line 347 in file .\objects\port.s
Comment: L7.164 used once
L7.18 00000012

Symbol: L7.18
   Definitions
      At line 266 in file .\objects\port.s
   Uses
      At line 263 in file .\objects\port.s
Comment: L7.18 used once
L7.184 000000B8

Symbol: L7.184
   Definitions
      At line 343 in file .\objects\port.s
   Uses
      At line 332 in file .\objects\port.s
Comment: L7.184 used once
L7.284 0000011C

Symbol: L7.284



ARM Macro Assembler    Page 2 Alphabetic symbol ordering
Relocatable symbols

   Definitions
      At line 387 in file .\objects\port.s
   Uses
      At line 257 in file .\objects\port.s
      At line 276 in file .\objects\port.s
      At line 360 in file .\objects\port.s
      At line 364 in file .\objects\port.s

L7.288 00000120

Symbol: L7.288
   Definitions
      At line 389 in file .\objects\port.s
   Uses
      At line 259 in file .\objects\port.s
      At line 278 in file .\objects\port.s

L7.292 00000124

Symbol: L7.292
   Definitions
      At line 391 in file .\objects\port.s
   Uses
      At line 296 in file .\objects\port.s
      At line 357 in file .\objects\port.s

L7.296 00000128

Symbol: L7.296
   Definitions
      At line 393 in file .\objects\port.s
   Uses
      At line 327 in file .\objects\port.s
Comment: L7.296 used once
L7.300 0000012C

Symbol: L7.300
   Definitions
      At line 395 in file .\objects\port.s
   Uses
      At line 330 in file .\objects\port.s
      At line 334 in file .\objects\port.s
      At line 337 in file .\objects\port.s
      At line 348 in file .\objects\port.s
      At line 351 in file .\objects\port.s

L7.304 00000130

Symbol: L7.304
   Definitions
      At line 397 in file .\objects\port.s
   Uses
      At line 373 in file .\objects\port.s
Comment: L7.304 used once
L7.308 00000134

Symbol: L7.308
   Definitions
      At line 399 in file .\objects\port.s



ARM Macro Assembler    Page 3 Alphabetic symbol ordering
Relocatable symbols

   Uses
      At line 376 in file .\objects\port.s
      At line 379 in file .\objects\port.s

L7.40 00000028

Symbol: L7.40
   Definitions
      At line 275 in file .\objects\port.s
   Uses
      At line 267 in file .\objects\port.s
Comment: L7.40 used once
L7.56 00000038

Symbol: L7.56
   Definitions
      At line 284 in file .\objects\port.s
   Uses
      At line 281 in file .\objects\port.s
Comment: L7.56 used once
L7.58 0000003A

Symbol: L7.58
   Definitions
      At line 286 in file .\objects\port.s
   Uses
      At line 283 in file .\objects\port.s
Comment: L7.58 used once
L7.80 00000050

Symbol: L7.80
   Definitions
      At line 295 in file .\objects\port.s
   Uses
      At line 287 in file .\objects\port.s
Comment: L7.80 used once
xPortStartScheduler 00000000

Symbol: xPortStartScheduler
   Definitions
      At line 255 in file .\objects\port.s
   Uses
      At line 737 in file FreeRTOS\\Source\\portable\\RVDS\\ARM_CM4F\\port.c
Comment: xPortStartScheduler used once
|i.xPortStartScheduler| 00000000

Symbol: |i.xPortStartScheduler|
   Definitions
      At line 253 in file .\objects\port.s
   Uses
      None
Comment: |i.xPortStartScheduler| unused
20 symbols



ARM Macro Assembler    Page 1 Alphabetic symbol ordering
Relocatable symbols

L8.34 00000022

Symbol: L8.34
   Definitions
      At line 417 in file .\objects\port.s
   Uses
      At line 413 in file .\objects\port.s
Comment: L8.34 used once
L8.48 00000030

Symbol: L8.48
   Definitions
      At line 426 in file .\objects\port.s
   Uses
      At line 415 in file .\objects\port.s
Comment: L8.48 used once
xPortSysTickHandler 00000000

Symbol: xPortSysTickHandler
   Definitions
      At line 404 in file .\objects\port.s
   Uses
      At line 738 in file FreeRTOS\\Source\\portable\\RVDS\\ARM_CM4F\\port.c
Comment: xPortSysTickHandler used once
|i.xPortSysTickHandler| 00000000

Symbol: |i.xPortSysTickHandler|
   Definitions
      At line 402 in file .\objects\port.s
   Uses
      None
Comment: |i.xPortSysTickHandler| unused
4 symbols



ARM Macro Assembler    Page 1 Alphabetic symbol ordering
Relocatable symbols

|.arm_vfe_header| 00000000

Symbol: |.arm_vfe_header|
   Definitions
      At line 429 in file .\objects\port.s
   Uses
      None
Comment: |.arm_vfe_header| unused
1 symbol



ARM Macro Assembler    Page 1 Alphabetic symbol ordering
Relocatable symbols

ucMaxSysCallPriority 00000004

Symbol: ucMaxSysCallPriority
   Definitions
      At line 437 in file .\objects\port.s
   Uses
      At line 247 in file .\objects\port.s
      At line 394 in file .\objects\port.s
      At line 746 in file FreeRTOS\\Source\\portable\\RVDS\\ARM_CM4F\\port.c

ulMaxPRIGROUPValue 00000008

Symbol: ulMaxPRIGROUPValue
   Definitions
      At line 439 in file .\objects\port.s
   Uses
      At line 251 in file .\objects\port.s
      At line 396 in file .\objects\port.s
      At line 747 in file FreeRTOS\\Source\\portable\\RVDS\\ARM_CM4F\\port.c

uxCriticalNesting 00000000

Symbol: uxCriticalNesting
   Definitions
      At line 435 in file .\objects\port.s
   Uses
      At line 41 in file .\objects\port.s
      At line 93 in file .\objects\port.s
      At line 136 in file .\objects\port.s
      At line 172 in file .\objects\port.s
      At line 398 in file .\objects\port.s
      At line 745 in file FreeRTOS\\Source\\portable\\RVDS\\ARM_CM4F\\port.c

|.data| 00000000

Symbol: |.data|
   Definitions
      At line 433 in file .\objects\port.s
   Uses
      None
Comment: |.data| unused
4 symbols



ARM Macro Assembler    Page 1 Alphabetic symbol ordering
Relocatable symbols

__asm___6_port_c_39a90d8d____REV16 00000000

Symbol: __asm___6_port_c_39a90d8d____REV16
   Definitions
      At line 114 in file .\\Library\\CMSIS\\core_cmInstr.h
   Uses
      At line 3 in file FreeRTOS\\Source\\portable\\RVDS\\ARM_CM4F\\port.c
Comment: __asm___6_port_c_39a90d8d____REV16 used once
|.rev16_text| 00000000

Symbol: |.rev16_text|
   Definitions
      At line 1 in file FreeRTOS\\Source\\portable\\RVDS\\ARM_CM4F\\port.c
   Uses
      None
Comment: |.rev16_text| unused
2 symbols



ARM Macro Assembler    Page 1 Alphabetic symbol ordering
Relocatable symbols

__asm___6_port_c_39a90d8d____REVSH 00000000

Symbol: __asm___6_port_c_39a90d8d____REVSH
   Definitions
      At line 128 in file .\\Library\\CMSIS\\core_cmInstr.h
   Uses
      At line 121 in file .\\Library\\CMSIS\\core_cmInstr.h
Comment: __asm___6_port_c_39a90d8d____REVSH used once
|.revsh_text| 00000000

Symbol: |.revsh_text|
   Definitions
      At line 119 in file .\\Library\\CMSIS\\core_cmInstr.h
   Uses
      None
Comment: |.revsh_text| unused
2 symbols



ARM Macro Assembler    Page 1 Alphabetic symbol ordering
Relocatable symbols

SVC_Handler 00000000

Symbol: SVC_Handler
   Definitions
      At line 278 in file FreeRTOS\\Source\\portable\\RVDS\\ARM_CM4F\\port.c
   Uses
      At line 135 in file .\\Library\\CMSIS\\core_cmInstr.h
Comment: SVC_Handler used once
__asm___6_port_c_39a90d8d__prvEnableVFP 0000003C

Symbol: __asm___6_port_c_39a90d8d__prvEnableVFP
   Definitions
      At line 318 in file FreeRTOS\\Source\\portable\\RVDS\\ARM_CM4F\\port.c
   Uses
      At line 375 in file .\objects\port.s
      At line 318 in file FreeRTOS\\Source\\portable\\RVDS\\ARM_CM4F\\port.c

__asm___6_port_c_39a90d8d__prvStartFirstTask 0000001A

Symbol: __asm___6_port_c_39a90d8d__prvStartFirstTask
   Definitions
      At line 296 in file FreeRTOS\\Source\\portable\\RVDS\\ARM_CM4F\\port.c
   Uses
      At line 381 in file .\objects\port.s
      At line 296 in file FreeRTOS\\Source\\portable\\RVDS\\ARM_CM4F\\port.c

vPortGetIPSR 00000050

Symbol: vPortGetIPSR
   Definitions
      At line 721 in file FreeRTOS\\Source\\portable\\RVDS\\ARM_CM4F\\port.c
   Uses
      At line 197 in file .\objects\port.s
      At line 334 in file FreeRTOS\\Source\\portable\\RVDS\\ARM_CM4F\\port.c

|.emb_text| 00000000

Symbol: |.emb_text|
   Definitions
      At line 133 in file .\\Library\\CMSIS\\core_cmInstr.h
   Uses
      None
Comment: |.emb_text| unused
5 symbols



ARM Macro Assembler    Page 1 Alphabetic symbol ordering
External symbols

SystemCoreClock 00000000

Symbol: SystemCoreClock
   Definitions
      At line 741 in file FreeRTOS\\Source\\portable\\RVDS\\ARM_CM4F\\port.c
   Uses
      At line 191 in file .\objects\port.s
Comment: SystemCoreClock used once
xTaskIncrementTick 00000000

Symbol: xTaskIncrementTick
   Definitions
      At line 742 in file FreeRTOS\\Source\\portable\\RVDS\\ARM_CM4F\\port.c
   Uses
      At line 412 in file .\objects\port.s
Comment: xTaskIncrementTick used once
|Lib$$Request$$armlib| 00000000

Symbol: |Lib$$Request$$armlib|
   Definitions
      At line 740 in file FreeRTOS\\Source\\portable\\RVDS\\ARM_CM4F\\port.c
   Uses
      None
Comment: |Lib$$Request$$armlib| unused
3 symbols
421 symbols in table
